Certificate:
    Data:
        Version: 3 (0x2)
        Serial Number: 264 (0x108)
    Signature Algorithm: sha1WithRSAEncryption
        Issuer: C=CN, ST=GuangDong, L=ShenZhen, O=Yzt, OU=Yzt
        Validity
            Not Before: Nov 16 03:20:02 2017 GMT
            Not After : Feb  2 03:20:02 2026 GMT
        Subject: C=CN, ST=Guangdong, O=Yzt, OU=Yzt, CN=client058
        Subject Public Key Info:
            Public Key Algorithm: rsaEncryption
                Public-Key: (1024 bit)
                Modulus:
                    00:aa:13:f6:2a:f9:28:de:c6:6b:22:cf:17:5c:f5:
                    3a:0c:a7:78:6a:5a:f0:41:c5:a8:d9:8b:25:43:35:
                    f3:c8:01:0d:06:c9:4d:a9:1e:f9:90:6a:6e:4c:4b:
                    4f:3e:4d:8b:cd:e4:0d:a6:61:bc:db:d9:e8:ee:70:
                    9d:13:63:70:6f:9d:4a:61:53:fc:3d:26:b8:f5:f8:
                    e3:41:8f:36:1f:bc:40:8c:62:21:88:90:8f:07:15:
                    81:43:bc:db:ed:a3:3a:8d:88:90:2a:f9:b5:5c:3f:
                    ab:0c:49:25:d5:29:0b:fc:c4:c6:b7:3f:db:1d:96:
                    c7:aa:70:e1:19:b8:df:54:cd
                Exponent: 65537 (0x10001)
        X509v3 extensions:
            X509v3 Basic Constraints: 
                CA:FALSE
            Netscape Comment: 
                OpenSSL Generated Certificate
            X509v3 Subject Key Identifier: 
                29:55:7D:CC:A0:AD:1B:19:22:20:78:26:4B:02:15:05:70:03:3B:0C
            X509v3 Authority Key Identifier: 
                keyid:74:37:EB:91:EF:27:1D:70:9D:63:F1:70:0B:41:77:A5:71:00:46:EB

    Signature Algorithm: sha1WithRSAEncryption
         05:f4:a7:30:02:41:7b:c9:84:28:88:3c:63:bc:07:a6:f2:b1:
         4c:a0:98:b6:4d:7f:62:dc:bc:2d:39:61:fd:b7:f1:f1:6e:86:
         9d:b8:3d:ec:ab:7e:fa:5b:95:d1:04:e6:4c:c3:9a:1e:dd:5f:
         11:ae:4e:b5:f7:b9:6c:6c:c4:32:0d:c6:9a:6b:8b:55:36:70:
         70:99:08:ac:c5:c6:df:2c:8e:8e:d2:ab:f5:8f:fb:61:30:f1:
         b5:29:dd:ba:b8:87:08:c7:88:bb:03:70:2b:19:56:c3:4b:7e:
         16:37:a6:5e:5a:9b:e2:3a:c0:5b:2c:29:39:13:62:51:b0:72:
         6c:1d:7a:f9:3f:c3:51:9a:7d:58:18:45:bb:53:2f:a5:20:30:
         e9:ff:f6:b6:12:b6:96:e1:57:a1:ba:2e:44:26:ac:ca:26:87:
         b3:24:b8:f0:ac:8a:69:03:85:fe:ad:2e:1b:f2:0e:b7:a9:7a:
         b0:c2:50:cb:94:a9:50:fb:e2:a6:43:52:3f:c3:62:e6:cc:6d:
         80:1f:cb:13:68:73:c3:63:2a:49:7a:67:98:96:e9:40:a9:1f:
         b6:9a:63:87:ef:c8:c1:1e:e2:26:23:4e:a8:06:fb:eb:57:d4:
         49:04:d5:44:52:53:7e:d2:82:8e:dc:a8:89:a2:9c:75:cf:bb:
         d0:ec:35:17
-----BEGIN CERTIFICATE-----
MIIDFDCCAfygAwIBAgICAQgwDQYJKoZIhvcNAQEFBQAwUDELMAkGA1UEBhMCQ04x
EjAQBgNVBAgMCUd1YW5nRG9uZzERMA8GA1UEBwwIU2hlblpoZW4xDDAKBgNVBAoM
A1l6dDEMMAoGA1UECwwDWXp0MB4XDTE3MTExNjAzMjAwMloXDTI2MDIwMjAzMjAw
MlowUTELMAkGA1UEBhMCQ04xEjAQBgNVBAgMCUd1YW5nZG9uZzEMMAoGA1UECgwD
WXp0MQwwCgYDVQQLDANZenQxEjAQBgNVBAMMCWNsaWVudDA1ODCBnzANBgkqhkiG
9w0BAQEFAAOBjQAwgYkCgYEAqhP2Kvko3sZrIs8XXPU6DKd4alrwQcWo2YslQzXz
yAENBslNqR75kGpuTEtPPk2LzeQNpmG829no7nCdE2Nwb51KYVP8PSa49fjjQY82
H7xAjGIhiJCPBxWBQ7zb7aM6jYiQKvm1XD+rDEkl1SkL/MTGtz/bHZbHqnDhGbjf
VM0CAwEAAaN7MHkwCQYDVR0TBAIwADAsBglghkgBhvhCAQ0EHxYdT3BlblNTTCBH
ZW5lcmF0ZWQgQ2VydGlmaWNhdGUwHQYDVR0OBBYEFClVfcygrRsZIiB4JksCFQVw
AzsMMB8GA1UdIwQYMBaAFHQ365HvJx1wnWPxcAtBd6VxAEbrMA0GCSqGSIb3DQEB
BQUAA4IBAQAF9KcwAkF7yYQoiDxjvAem8rFMoJi2TX9i3LwtOWH9t/HxboaduD3s
q376W5XRBOZMw5oe3V8Rrk6197lsbMQyDcaaa4tVNnBwmQisxcbfLI6O0qv1j/th
MPG1Kd26uIcIx4i7A3ArGVbDS34WN6ZeWpviOsBbLCk5E2JRsHJsHXr5P8NRmn1Y
GEW7Uy+lIDDp//a2EraW4Vehui5EJqzKJoezJLjwrIppA4X+rS4b8g63qXqwwlDL
lKlQ++KmQ1I/w2LmzG2AH8sTaHPDYypJemeYlulAqR+2mmOH78jBHuImI06oBvvr
V9RJBNVEUlN+0oKO3KiJopx1z7vQ7DUX
-----END CERTIFICATE-----
